target datalayout = "e-m:e-p270:32:32-p271:32:32-p272:64:64-i64:64-i128:128-f80:128-n8:16:32:64-S128"
target triple = "x86_64-pc-linux-gnu"

; Function Attrs: nounwind uwtable
define internal ptr @_film_recursive_get_files(ptr noundef %0, i32 noundef %1, ptr noundef %2) #0 {
  %4 = alloca ptr, align 8
  %5 = alloca ptr, align 8
  %6 = alloca i32, align 4
  %7 = alloca ptr, align 8
  %8 = alloca ptr, align 8
  %9 = alloca ptr, align 8
  %10 = alloca i32, align 4
  %11 = alloca ptr, align 8
  store ptr %0, ptr %5, align 8, !tbaa !31
  store i32 %1, ptr %6, align 4, !tbaa !27
  store ptr %2, ptr %7, align 8, !tbaa !78
  call void @llvm.lifetime.start.p0(i64 8, ptr %8) #9
  call void @llvm.lifetime.start.p0(i64 8, ptr %9) #9
  %12 = load ptr, ptr %5, align 8, !tbaa !31
  %13 = call ptr @g_dir_open(ptr noundef %12, i32 noundef 0, ptr noundef null)
  store ptr %13, ptr %9, align 8, !tbaa !33
  %14 = load ptr, ptr %9, align 8, !tbaa !33
  %15 = icmp ne ptr %14, null
  br i1 %15, label %19, label %16

16:                                               ; preds = %3
  %17 = load ptr, ptr %7, align 8, !tbaa !78
  %18 = load ptr, ptr %17, align 8, !tbaa !35
  store ptr %18, ptr %4, align 8
  store i32 1, ptr %10, align 4
  br label %76

19:                                               ; preds = %3
  br label %20

20:                                               ; preds = %71, %19
  call void @llvm.lifetime.start.p0(i64 8, ptr %11) #9
  %21 = load ptr, ptr %9, align 8, !tbaa !33
  %22 = call ptr @g_dir_read_name(ptr noundef %21)
  store ptr %22, ptr %11, align 8, !tbaa !31
  %23 = load ptr, ptr %11, align 8, !tbaa !31
  %24 = icmp ne ptr %23, null
  br i1 %24, label %26, label %25

25:                                               ; preds = %20
  store i32 2, ptr %10, align 4
  br label %68

26:                                               ; preds = %20
  %27 = load ptr, ptr %11, align 8, !tbaa !31
  %28 = getelementptr inbounds i8, ptr %27, i64 0
  %29 = load i8, ptr %28, align 1, !tbaa !34
  %30 = sext i8 %29 to i32
  %31 = icmp eq i32 %30, 46
  br i1 %31, label %32, label %33

32:                                               ; preds = %26
  store i32 3, ptr %10, align 4
  br label %68

33:                                               ; preds = %26
  %34 = load ptr, ptr %5, align 8, !tbaa !31
  %35 = load ptr, ptr %11, align 8, !tbaa !31
  %36 = call noalias ptr (ptr, ...) @g_build_filename(ptr noundef %34, ptr noundef %35, ptr noundef null)
  store ptr %36, ptr %8, align 8, !tbaa !31
  %37 = load i32, ptr %6, align 4, !tbaa !27
  %38 = icmp ne i32 %37, 0
  br i1 %38, label %39, label %50

39:                                               ; preds = %33
  %40 = load ptr, ptr %8, align 8, !tbaa !31
  %41 = call i32 @g_file_test(ptr noundef %40, i32 noundef 4)
  %42 = icmp ne i32 %41, 0
  br i1 %42, label %43, label %50

43:                                               ; preds = %39
  %44 = load ptr, ptr %8, align 8, !tbaa !31
  %45 = load i32, ptr %6, align 4, !tbaa !27
  %46 = load ptr, ptr %7, align 8, !tbaa !78
  %47 = call ptr @_film_recursive_get_files(ptr noundef %44, i32 noundef %45, ptr noundef %46)
  %48 = load ptr, ptr %7, align 8, !tbaa !78
  store ptr %47, ptr %48, align 8, !tbaa !35
  %49 = load ptr, ptr %8, align 8, !tbaa !31
  call void @g_free(ptr noundef %49)
  br label %67

50:                                               ; preds = %39, %33
  %51 = load ptr, ptr %8, align 8, !tbaa !31
  %52 = call i32 @g_file_test(ptr noundef %51, i32 noundef 4)
  %53 = icmp ne i32 %52, 0
  br i1 %53, label %64, label %54

54:                                               ; preds = %50
  %55 = load ptr, ptr %11, align 8, !tbaa !31
  %56 = call i32 @dt_supported_image(ptr noundef %55)
  %57 = icmp ne i32 %56, 0
  br i1 %57, label %58, label %64

58:                                               ; preds = %54
  %59 = load ptr, ptr %7, align 8, !tbaa !78
  %60 = load ptr, ptr %59, align 8, !tbaa !35
  %61 = load ptr, ptr %8, align 8, !tbaa !31
  %62 = call ptr @g_list_prepend(ptr noundef %60, ptr noundef %61)
  %63 = load ptr, ptr %7, align 8, !tbaa !78
  store ptr %62, ptr %63, align 8, !tbaa !35
  br label %66

64:                                               ; preds = %54, %50
  %65 = load ptr, ptr %8, align 8, !tbaa !31
  call void @g_free(ptr noundef %65)
  br label %66

66:                                               ; preds = %64, %58
  br label %67

67:                                               ; preds = %66, %43
  store i32 0, ptr %10, align 4
  br label %68

68:                                               ; preds = %67, %32, %25
  call void @llvm.lifetime.end.p0(i64 8, ptr %11) #9
  %69 = load i32, ptr %10, align 4
  switch i32 %69, label %78 [
    i32 0, label %70
    i32 2, label %72
    i32 3, label %71
  ]

70:                                               ; preds = %68
  br label %71

71:                                               ; preds = %70, %68
  br i1 true, label %20, label %72

72:                                               ; preds = %71, %68
  %73 = load ptr, ptr %9, align 8, !tbaa !33
  call void @g_dir_close(ptr noundef %73)
  %74 = load ptr, ptr %7, align 8, !tbaa !78
  %75 = load ptr, ptr %74, align 8, !tbaa !35
  store ptr %75, ptr %4, align 8
  store i32 1, ptr %10, align 4
  br label %76

76:                                               ; preds = %72, %16
  call void @llvm.lifetime.end.p0(i64 8, ptr %9) #9
  call void @llvm.lifetime.end.p0(i64 8, ptr %8) #9
  %77 = load ptr, ptr %4, align 8
  ret ptr %77

78:                                               ; preds = %68
  unreachable
}