; Function Attrs: nounwind uwtable
define internal fastcc ptr @_film_recursive_get_files(ptr noundef %0, i32 noundef %1, ptr noundef nonnull captures(none) %2) unnamed_addr #0 {
  %4 = tail call ptr @g_dir_open(ptr noundef %0, i32 noundef 0, ptr noundef null) #11
  %.not = icmp eq ptr %4, null
  br i1 %.not, label %38, label %.preheader

.preheader:                                       ; preds = %3
  %5 = tail call ptr @g_dir_read_name(ptr noundef nonnull %4) #11
  %.not2735 = icmp eq ptr %5, null
  br i1 %.not2735, label %._crit_edge, label %.lr.ph

.lr.ph:                                           ; preds = %.preheader
  %.not28 = icmp eq i32 %1, 0
  br i1 %.not28, label %.lr.ph.split.us, label %.lr.ph.split

.lr.ph.split.us:                                  ; preds = %.lr.ph, %18
  %6 = phi ptr [ %19, %18 ], [ %5, %.lr.ph ]
  %7 = load i8, ptr %6, align 1, !tbaa !22
  %8 = icmp eq i8 %7, 46
  br i1 %8, label %18, label %9

9:                                                ; preds = %.lr.ph.split.us
  %10 = tail call noalias ptr (ptr, ...) @g_build_filename(ptr noundef %0, ptr noundef nonnull %6, ptr noundef null) #11
  %11 = tail call i32 @g_file_test(ptr noundef %10, i32 noundef 4) #11
  %.not30.us = icmp eq i32 %11, 0
  br i1 %.not30.us, label %12, label %17

12:                                               ; preds = %9
  %13 = tail call i32 @dt_supported_image(ptr noundef nonnull %6) #11
  %.not31.us = icmp eq i32 %13, 0
  br i1 %.not31.us, label %17, label %14

14:                                               ; preds = %12
  %15 = load ptr, ptr %2, align 8, !tbaa !23
  %16 = tail call ptr @g_list_prepend(ptr noundef %15, ptr noundef %10) #11
  store ptr %16, ptr %2, align 8, !tbaa !23
  br label %18

17:                                               ; preds = %12, %9
  tail call void @g_free(ptr noundef %10) #11
  br label %18

18:                                               ; preds = %17, %14, %.lr.ph.split.us
  %19 = tail call ptr @g_dir_read_name(ptr noundef nonnull %4) #11
  %.not27.us = icmp eq ptr %19, null
  br i1 %.not27.us, label %._crit_edge, label %.lr.ph.split.us

.lr.ph.split:                                     ; preds = %.lr.ph, %36
  %20 = phi ptr [ %37, %36 ], [ %5, %.lr.ph ]
  %21 = load i8, ptr %20, align 1, !tbaa !22
  %22 = icmp eq i8 %21, 46
  br i1 %22, label %36, label %23

23:                                               ; preds = %.lr.ph.split
  %24 = tail call noalias ptr (ptr, ...) @g_build_filename(ptr noundef %0, ptr noundef nonnull %20, ptr noundef null) #11
  %25 = tail call i32 @g_file_test(ptr noundef %24, i32 noundef 4) #11
  %.not29 = icmp eq i32 %25, 0
  br i1 %.not29, label %28, label %26

26:                                               ; preds = %23
  %27 = tail call fastcc ptr @_film_recursive_get_files(ptr noundef %24, i32 noundef %1, ptr noundef %2)
  store ptr %27, ptr %2, align 8, !tbaa !23
  tail call void @g_free(ptr noundef %24) #11
  br label %36

28:                                               ; preds = %23
  %29 = tail call i32 @g_file_test(ptr noundef %24, i32 noundef 4) #11
  %.not30 = icmp eq i32 %29, 0
  br i1 %.not30, label %30, label %35

30:                                               ; preds = %28
  %31 = tail call i32 @dt_supported_image(ptr noundef nonnull %20) #11
  %.not31 = icmp eq i32 %31, 0
  br i1 %.not31, label %35, label %32

32:                                               ; preds = %30
  %33 = load ptr, ptr %2, align 8, !tbaa !23
  %34 = tail call ptr @g_list_prepend(ptr noundef %33, ptr noundef %24) #11
  store ptr %34, ptr %2, align 8, !tbaa !23
  br label %36

35:                                               ; preds = %30, %28
  tail call void @g_free(ptr noundef %24) #11
  br label %36

36:                                               ; preds = %26, %35, %32, %.lr.ph.split
  %37 = tail call ptr @g_dir_read_name(ptr noundef nonnull %4) #11
  %.not27 = icmp eq ptr %37, null
  br i1 %.not27, label %._crit_edge, label %.lr.ph.split

._crit_edge:                                      ; preds = %36, %18, %.preheader
  tail call void @g_dir_close(ptr noundef nonnull %4) #11
  br label %38

38:                                               ; preds = %3, %._crit_edge
  %.0 = load ptr, ptr %2, align 8, !tbaa !23
  ret ptr %.0
}